; Function Attrs: mustprogress nofree norecurse nosync nounwind willreturn memory(readwrite, inaccessiblemem: none) uwtable
define hidden void @Curl_multi_xfer_buf_release(ptr noundef readonly captures(none) %0, ptr noundef readnone captures(none) %1) local_unnamed_addr #12 {
  %3 = getelementptr inbounds nuw i8, ptr %0, i64 208
  %4 = load ptr, ptr %3, align 8, !tbaa !92
  %5 = getelementptr inbounds nuw i8, ptr %4, i64 649
  %6 = load i8, ptr %5, align 1
  %7 = and i8 %6, -33
  store i8 %7, ptr %5, align 1
  ret void
}